	.file	"Programa.cpp"
	.section	.text$_Z6printfPKcz,"x"
	.linkonce discard
	.globl	_Z6printfPKcz
	.def	_Z6printfPKcz;	.scl	2;	.type	32;	.endef
	.seh_proc	_Z6printfPKcz
_Z6printfPKcz:
.LFB27:
	pushq	%rbp
	.seh_pushreg	%rbp
	pushq	%rbx
	.seh_pushreg	%rbx
	subq	$56, %rsp
	.seh_stackalloc	56
	leaq	128(%rsp), %rbp
	.seh_setframe	%rbp, 128
	.seh_endprologue
	movq	%rcx, -48(%rbp)
	movq	%rdx, -40(%rbp)
	movq	%r8, -32(%rbp)
	movq	%r9, -24(%rbp)
	leaq	-40(%rbp), %rax
	movq	%rax, -88(%rbp)
	movq	-88(%rbp), %rax
	movq	%rax, %rdx
	movq	-48(%rbp), %rcx
	call	__mingw_vprintf
	movl	%eax, %ebx
	movl	%ebx, %eax
	addq	$56, %rsp
	popq	%rbx
	popq	%rbp
	ret
	.seh_endproc
	.def	__main;	.scl	2;	.type	32;	.endef
	.section .rdata,"dr"
.LC0:
	.ascii "Al inicio: %d \12\0"
.LC1:
	.ascii "Despues: %d \12\0"
.LC2:
	.ascii "pause\0"
	.text
	.globl	main
	.def	main;	.scl	2;	.type	32;	.endef
	.seh_proc	main
main:
.LFB63:
	pushq	%rbp
	.seh_pushreg	%rbp
	movq	%rsp, %rbp
	.seh_setframe	%rbp, 0
	subq	$48, %rsp
	.seh_stackalloc	48
	.seh_endprologue
	call	__main
	movl	$1, -8(%rbp)
	movl	$0, -4(%rbp)
	movl	-4(%rbp), %eax
	movl	%eax, %edx
	leaq	.LC0(%rip), %rcx
	call	_Z6printfPKcz
	cmpl	$1, -8(%rbp)
	jne	.L4
	movl	$5, -4(%rbp)
.L4:
	movl	-4(%rbp), %eax
	movl	%eax, %edx
	leaq	.LC1(%rip), %rcx
	call	_Z6printfPKcz
	leaq	.LC2(%rip), %rcx
	call	system
	movl	-4(%rbp), %eax
	addq	$48, %rsp
	popq	%rbp
	ret
	.seh_endproc
	.ident	"GCC: (Rev1, Built by MSYS2 project) 7.2.0"
	.def	__mingw_vprintf;	.scl	2;	.type	32;	.endef
	.def	system;	.scl	2;	.type	32;	.endef
